
output.exe:     file format elf64-x86-64

SYMBOL TABLE:
00000000004001c8 l    d  .interp	0000000000000000              .interp
00000000004001e8 l    d  .hash	0000000000000000              .hash
0000000000400220 l    d  .gnu.hash	0000000000000000              .gnu.hash
0000000000400248 l    d  .dynsym	0000000000000000              .dynsym
0000000000400308 l    d  .dynstr	0000000000000000              .dynstr
0000000000400362 l    d  .gnu.version	0000000000000000              .gnu.version
0000000000400378 l    d  .gnu.version_r	0000000000000000              .gnu.version_r
00000000004003a8 l    d  .rela.dyn	0000000000000000              .rela.dyn
00000000004003d8 l    d  .rela.plt	0000000000000000              .rela.plt
0000000000400450 l    d  .plt	0000000000000000              .plt
00000000004004b0 l    d  .text	0000000000000000              .text
00000000004006d6 l    d  .rodata	0000000000000000              .rodata
00000000004006f8 l    d  .eh_frame	0000000000000000              .eh_frame
0000000000600e80 l    d  .dynamic	0000000000000000              .dynamic
0000000000601000 l    d  .got.plt	0000000000000000              .got.plt
0000000000601040 l    d  .data	0000000000000000              .data
0000000000601050 l    d  .bss	0000000000000000              .bss
0000000000000000 l    d  .comment	0000000000000000              .comment
0000000000000000 l    df *ABS*	0000000000000000              output.o
0000000000601040 l       .data	0000000000000000              gbl_d
0000000000601048 l       .data	0000000000000000              gbl_z
00000000004004b0 l       .text	0000000000000000              fun_f
00000000004004c9 l       .text	0000000000000000              lbl_0
00000000004004d6 l       .text	0000000000000000              fun_main
0000000000400573 l       .text	0000000000000000              lbl_2
00000000004005e3 l       .text	0000000000000000              lbl_1
0000000000000000 l    df *ABS*	0000000000000000              stdlake.c
0000000000000000 l    df *ABS*	0000000000000000              
0000000000600e80 l     O .dynamic	0000000000000000              _DYNAMIC
0000000000601000 l     O .got.plt	0000000000000000              _GLOBAL_OFFSET_TABLE_
00000000004005f3 g     F .text	000000000000002e              printInt
0000000000601050 g     O .bss	0000000000000008              stdout@@GLIBC_2.2.5
0000000000601060 g     O .bss	0000000000000008              stdin@@GLIBC_2.2.5
0000000000601050 g       .data	0000000000000000              _edata
0000000000000000       F *UND*	0000000000000000              __stack_chk_fail@@GLIBC_2.4
0000000000400621 g     F .text	000000000000002e              printString
0000000000000000       F *UND*	0000000000000000              fgets@@GLIBC_2.2.5
0000000000000000       F *UND*	0000000000000000              fprintf@@GLIBC_2.2.5
0000000000000000       F *UND*	0000000000000000              fflush@@GLIBC_2.2.5
0000000000601068 g       .bss	0000000000000000              _end
00000000004004b0 g       .text	0000000000000000              _start
0000000000601050 g       .bss	0000000000000000              __bss_start
0000000000000000       F *UND*	0000000000000000              atol@@GLIBC_2.2.5
000000000040064f g     F .text	0000000000000087              getInt



Disassembly of section .plt:

0000000000400450 <.plt>:
  400450:	ff 35 b2 0b 20 00    	pushq  0x200bb2(%rip)        # 601008 <_GLOBAL_OFFSET_TABLE_+0x8>
  400456:	ff 25 b4 0b 20 00    	jmpq   *0x200bb4(%rip)        # 601010 <_GLOBAL_OFFSET_TABLE_+0x10>
  40045c:	0f 1f 40 00          	nopl   0x0(%rax)

0000000000400460 <__stack_chk_fail@plt>:
  400460:	ff 25 b2 0b 20 00    	jmpq   *0x200bb2(%rip)        # 601018 <__stack_chk_fail@GLIBC_2.4>
  400466:	68 00 00 00 00       	pushq  $0x0
  40046b:	e9 e0 ff ff ff       	jmpq   400450 <.plt>

0000000000400470 <fgets@plt>:
  400470:	ff 25 aa 0b 20 00    	jmpq   *0x200baa(%rip)        # 601020 <fgets@GLIBC_2.2.5>
  400476:	68 01 00 00 00       	pushq  $0x1
  40047b:	e9 d0 ff ff ff       	jmpq   400450 <.plt>

0000000000400480 <fprintf@plt>:
  400480:	ff 25 a2 0b 20 00    	jmpq   *0x200ba2(%rip)        # 601028 <fprintf@GLIBC_2.2.5>
  400486:	68 02 00 00 00       	pushq  $0x2
  40048b:	e9 c0 ff ff ff       	jmpq   400450 <.plt>

0000000000400490 <fflush@plt>:
  400490:	ff 25 9a 0b 20 00    	jmpq   *0x200b9a(%rip)        # 601030 <fflush@GLIBC_2.2.5>
  400496:	68 03 00 00 00       	pushq  $0x3
  40049b:	e9 b0 ff ff ff       	jmpq   400450 <.plt>

00000000004004a0 <atol@plt>:
  4004a0:	ff 25 92 0b 20 00    	jmpq   *0x200b92(%rip)        # 601038 <atol@GLIBC_2.2.5>
  4004a6:	68 04 00 00 00       	pushq  $0x4
  4004ab:	e9 a0 ff ff ff       	jmpq   400450 <.plt>

Disassembly of section .text:

00000000004004b0 <_start>:
  4004b0:	48 83 ec 08          	sub    $0x8,%rsp
  4004b4:	48 89 2c 24          	mov    %rbp,(%rsp)
  4004b8:	48 89 e5             	mov    %rsp,%rbp
  4004bb:	48 83 c5 10          	add    $0x10,%rbp
  4004bf:	48 83 ec 00          	sub    $0x0,%rsp
  4004c3:	48 8b 7d 00          	mov    0x0(%rbp),%rdi
  4004c7:	eb 00                	jmp    4004c9 <lbl_0>

00000000004004c9 <lbl_0>:
  4004c9:	48 83 c4 08          	add    $0x8,%rsp
  4004cd:	48 8b 2c 24          	mov    (%rsp),%rbp
  4004d1:	48 83 c4 08          	add    $0x8,%rsp
  4004d5:	c3                   	retq   

00000000004004d6 <fun_main>:
  4004d6:	48 83 ec 08          	sub    $0x8,%rsp
  4004da:	48 89 2c 24          	mov    %rbp,(%rsp)
  4004de:	48 89 e5             	mov    %rsp,%rbp
  4004e1:	48 83 c5 10          	add    $0x10,%rbp
  4004e5:	48 83 ec 38          	sub    $0x38,%rsp
  4004e9:	48 c7 c0 00 00 00 00 	mov    $0x0,%rax
  4004f0:	48 89 45 e0          	mov    %rax,-0x20(%rbp)
  4004f4:	48 c7 c0 06 00 00 00 	mov    $0x6,%rax
  4004fb:	48 89 04 25 48 10 60 00 	mov    %rax,0x601048
  400503:	48 c7 c0 01 00 00 00 	mov    $0x1,%rax
  40050a:	48 89 04 25 40 10 60 00 	mov    %rax,0x601040
  400512:	48 c7 c0 04 00 00 00 	mov    $0x4,%rax
  400519:	48 89 45 e8          	mov    %rax,-0x18(%rbp)
  40051d:	48 c7 c0 02 00 00 00 	mov    $0x2,%rax
  400524:	48 c7 c3 03 00 00 00 	mov    $0x3,%rbx
  40052b:	48 f7 eb             	imul   %rbx
  40052e:	48 89 45 d8          	mov    %rax,-0x28(%rbp)
  400532:	48 8b 45 d8          	mov    -0x28(%rbp),%rax
  400536:	48 89 45 e8          	mov    %rax,-0x18(%rbp)
  40053a:	48 8b 45 e8          	mov    -0x18(%rbp),%rax
  40053e:	48 8b 1c 25 48 10 60 00 	mov    0x601048,%rbx
  400546:	48 39 d8             	cmp    %rbx,%rax
  400549:	0f 9c c0             	setl   %al
  40054c:	48 89 45 d0          	mov    %rax,-0x30(%rbp)
  400550:	48 8b 45 d0          	mov    -0x30(%rbp),%rax
  400554:	75 1d                	jne    400573 <lbl_2>
  400556:	48 c7 c0 05 00 00 00 	mov    $0x5,%rax
  40055d:	48 c7 c3 04 00 00 00 	mov    $0x4,%rbx
  400564:	48 29 d8             	sub    %rbx,%rax
  400567:	48 89 45 c8          	mov    %rax,-0x38(%rbp)
  40056b:	48 8b 45 c8          	mov    -0x38(%rbp),%rax
  40056f:	48 89 45 e8          	mov    %rax,-0x18(%rbp)

0000000000400573 <lbl_2>:
  400573:	90                   	nop
  400574:	48 c7 c2 00 00 00 00 	mov    $0x0,%rdx
  40057b:	48 c7 c0 02 00 00 00 	mov    $0x2,%rax
  400582:	48 c7 c3 03 00 00 00 	mov    $0x3,%rbx
  400589:	48 f7 fb             	idiv   %rbx
  40058c:	48 89 45 c0          	mov    %rax,-0x40(%rbp)
  400590:	48 8b 45 c0          	mov    -0x40(%rbp),%rax
  400594:	48 89 45 e8          	mov    %rax,-0x18(%rbp)
  400598:	48 8b 45 e8          	mov    -0x18(%rbp),%rax
  40059c:	48 c7 c3 01 00 00 00 	mov    $0x1,%rbx
  4005a3:	48 01 d8             	add    %rbx,%rax
  4005a6:	48 89 45 e8          	mov    %rax,-0x18(%rbp)
  4005aa:	48 8b 45 e8          	mov    -0x18(%rbp),%rax
  4005ae:	48 c7 c3 01 00 00 00 	mov    $0x1,%rbx
  4005b5:	48 29 d8             	sub    %rbx,%rax
  4005b8:	48 89 45 e8          	mov    %rax,-0x18(%rbp)
  4005bc:	48 8b 7d e8          	mov    -0x18(%rbp),%rdi
  4005c0:	e8 2e 00 00 00       	callq  4005f3 <printInt>
  4005c5:	48 8b 45 e0          	mov    -0x20(%rbp),%rax
  4005c9:	48 83 ec 08          	sub    $0x8,%rsp
  4005cd:	48 89 04 24          	mov    %rax,(%rsp)
  4005d1:	e8 da fe ff ff       	callq  4004b0 <_start>
  4005d6:	48 83 c4 01          	add    $0x1,%rsp
  4005da:	48 c7 c7 00 00 00 00 	mov    $0x0,%rdi
  4005e1:	eb 00                	jmp    4005e3 <lbl_1>

00000000004005e3 <lbl_1>:
  4005e3:	48 c7 c0 3c 00 00 00 	mov    $0x3c,%rax
  4005ea:	48 c7 c7 00 00 00 00 	mov    $0x0,%rdi
  4005f1:	0f 05                	syscall 

00000000004005f3 <printInt>:
  4005f3:	55                   	push   %rbp
  4005f4:	48 89 e5             	mov    %rsp,%rbp
  4005f7:	48 83 ec 10          	sub    $0x10,%rsp
  4005fb:	48 89 7d f8          	mov    %rdi,-0x8(%rbp)
  4005ff:	48 8b 05 4a 0a 20 00 	mov    0x200a4a(%rip),%rax        # 601050 <stdout@@GLIBC_2.2.5>
  400606:	48 8b 55 f8          	mov    -0x8(%rbp),%rdx
  40060a:	48 8d 35 c5 00 00 00 	lea    0xc5(%rip),%rsi        # 4006d6 <getInt+0x87>
  400611:	48 89 c7             	mov    %rax,%rdi
  400614:	b8 00 00 00 00       	mov    $0x0,%eax
  400619:	e8 62 fe ff ff       	callq  400480 <fprintf@plt>
  40061e:	90                   	nop
  40061f:	c9                   	leaveq 
  400620:	c3                   	retq   

0000000000400621 <printString>:
  400621:	55                   	push   %rbp
  400622:	48 89 e5             	mov    %rsp,%rbp
  400625:	48 83 ec 10          	sub    $0x10,%rsp
  400629:	48 89 7d f8          	mov    %rdi,-0x8(%rbp)
  40062d:	48 8b 05 1c 0a 20 00 	mov    0x200a1c(%rip),%rax        # 601050 <stdout@@GLIBC_2.2.5>
  400634:	48 8b 55 f8          	mov    -0x8(%rbp),%rdx
  400638:	48 8d 35 9c 00 00 00 	lea    0x9c(%rip),%rsi        # 4006db <getInt+0x8c>
  40063f:	48 89 c7             	mov    %rax,%rdi
  400642:	b8 00 00 00 00       	mov    $0x0,%eax
  400647:	e8 34 fe ff ff       	callq  400480 <fprintf@plt>
  40064c:	90                   	nop
  40064d:	c9                   	leaveq 
  40064e:	c3                   	retq   

000000000040064f <getInt>:
  40064f:	55                   	push   %rbp
  400650:	48 89 e5             	mov    %rsp,%rbp
  400653:	48 83 ec 40          	sub    $0x40,%rsp
  400657:	64 48 8b 04 25 28 00 00 00 	mov    %fs:0x28,%rax
  400660:	48 89 45 f8          	mov    %rax,-0x8(%rbp)
  400664:	31 c0                	xor    %eax,%eax
  400666:	48 8b 15 f3 09 20 00 	mov    0x2009f3(%rip),%rdx        # 601060 <stdin@@GLIBC_2.2.5>
  40066d:	48 8d 45 d0          	lea    -0x30(%rbp),%rax
  400671:	be 20 00 00 00       	mov    $0x20,%esi
  400676:	48 89 c7             	mov    %rax,%rdi
  400679:	e8 f2 fd ff ff       	callq  400470 <fgets@plt>
  40067e:	48 8d 45 d0          	lea    -0x30(%rbp),%rax
  400682:	48 89 c7             	mov    %rax,%rdi
  400685:	e8 16 fe ff ff       	callq  4004a0 <atol@plt>
  40068a:	48 89 45 c8          	mov    %rax,-0x38(%rbp)
  40068e:	48 8b 05 bb 09 20 00 	mov    0x2009bb(%rip),%rax        # 601050 <stdout@@GLIBC_2.2.5>
  400695:	48 8b 55 c8          	mov    -0x38(%rbp),%rdx
  400699:	48 8d 35 3f 00 00 00 	lea    0x3f(%rip),%rsi        # 4006df <getInt+0x90>
  4006a0:	48 89 c7             	mov    %rax,%rdi
  4006a3:	b8 00 00 00 00       	mov    $0x0,%eax
  4006a8:	e8 d3 fd ff ff       	callq  400480 <fprintf@plt>
  4006ad:	48 8b 05 9c 09 20 00 	mov    0x20099c(%rip),%rax        # 601050 <stdout@@GLIBC_2.2.5>
  4006b4:	48 89 c7             	mov    %rax,%rdi
  4006b7:	e8 d4 fd ff ff       	callq  400490 <fflush@plt>
  4006bc:	48 8b 45 c8          	mov    -0x38(%rbp),%rax
  4006c0:	48 8b 4d f8          	mov    -0x8(%rbp),%rcx
  4006c4:	64 48 33 0c 25 28 00 00 00 	xor    %fs:0x28,%rcx
  4006cd:	74 05                	je     4006d4 <getInt+0x85>
  4006cf:	e8 8c fd ff ff       	callq  400460 <__stack_chk_fail@plt>
  4006d4:	c9                   	leaveq 
  4006d5:	c3                   	retq   
